; Function Attrs: nounwind uwtable
define void @png_set_text_compression_window_bits(ptr noalias noundef %0, i32 noundef %1) local_unnamed_addr #0 {
  %3 = icmp eq ptr %0, null
  br i1 %3, label %10, label %4

4:                                                ; preds = %2
  %5 = icmp sgt i32 %1, 15
  br i1 %5, label %.sink.split, label %6

6:                                                ; preds = %4
  %7 = icmp slt i32 %1, 8
  br i1 %7, label %.sink.split, label %8

.sink.split:                                      ; preds = %6, %4
  %.str.11.sink = phi ptr [ @.str.10, %4 ], [ @.str.11, %6 ]
  %.0.ph = phi i32 [ 15, %4 ], [ 8, %6 ]
  tail call void @png_warning(ptr noundef nonnull %0, ptr noundef nonnull %.str.11.sink) #15
  br label %8

8:                                                ; preds = %.sink.split, %6
  %.0 = phi i32 [ %1, %6 ], [ %.0.ph, %.sink.split ]
  %9 = getelementptr inbounds i8, ptr %0, i64 472
  store i32 %.0, ptr %9, align 8
  br label %10

10:                                               ; preds = %2, %8
  ret void
}